Certificate:
    Data:
        Version: 1 (0x0)
        Serial Number: 102 (0x66)
        Signature Algorithm: sha1WithRSAEncryption
        Issuer: O=Computer Science House, OU=OPComm/emailAddress=sysadmin@csh.rit.edu, L=Rochester, ST=New York, C=US, CN=OPComm
        Validity
            Not Before: Nov 21 11:36:36 2008 GMT
            Not After : Nov 21 11:36:36 2009 GMT
        Subject: C=US, ST=New York, O=Computer Science House, OU=OPComm, CN=drink.csh.rit.edu
        Subject Public Key Info:
            Public Key Algorithm: rsaEncryption
            RSA Public Key: (2048 bit)
                Modulus (2048 bit):
                    00:ac:d3:d8:5b:d9:1f:d1:57:0a:fd:7c:84:6d:94:
                    9e:ed:86:25:70:1a:86:5a:86:11:ae:d6:50:fb:ee:
                    f7:6f:fc:ee:cd:cf:15:d9:42:20:cf:6c:19:57:3e:
                    44:d8:ea:91:74:1b:d5:95:51:e1:11:81:8e:16:b3:
                    06:4a:92:3f:ac:7b:3c:53:38:a3:81:b7:f3:b5:93:
                    16:f3:30:10:8c:5f:ad:d5:75:73:f0:fd:61:bd:59:
                    b9:0c:7a:19:4f:19:e2:b7:99:a7:ad:2f:8a:40:7c:
                    d3:d5:93:06:a9:4b:09:04:0e:cd:3b:8e:c4:42:92:
                    4b:36:ed:b2:44:2d:1d:d4:d4:1d:3e:f8:e4:27:1b:
                    ed:34:99:1d:f4:28:bc:c5:4c:0d:f8:d0:0b:ba:ed:
                    b8:57:db:e7:1e:15:ef:2f:4e:91:7c:93:4b:08:2a:
                    df:1e:ef:9b:24:71:58:ed:36:5f:41:6c:6e:50:9d:
                    45:70:9f:3d:cd:65:ce:80:0b:fb:91:b3:47:e2:48:
                    76:58:36:41:83:41:ed:4d:11:ab:f8:9b:40:b5:58:
                    56:fa:bb:63:05:9d:ea:5d:87:66:ea:e8:32:c7:94:
                    b9:d4:ae:0e:71:16:b4:be:10:78:28:1b:1a:a7:26:
                    24:6c:08:71:d8:b8:48:bc:df:61:e0:84:7f:f0:04:
                    43:5f
                Exponent: 65537 (0x10001)
    Signature Algorithm: sha1WithRSAEncryption
        45:28:b0:c8:50:d9:61:be:97:60:5a:53:75:46:ce:d1:c5:62:
        ae:d1:1e:c7:cd:e0:02:2f:0a:0f:02:c5:91:5f:c8:8b:b3:d6:
        37:b5:1a:7f:a9:2c:13:8b:42:28:7b:9b:29:a9:f3:44:44:f6:
        61:cd:bf:b4:2e:9c:d1:7c:36:b9:2a:b1:60:ac:a1:7d:18:4d:
        13:e6:aa:ad:11:34:51:e7:b4:62:66:0c:b8:cb:35:e5:0a:50:
        14:6c:69:d7:c7:5c:c5:b0:08:50:de:b8:8f:9a:14:61:43:dc:
        d6:64:32:dd:ba:11:99:53:cf:4f:71:c7:8a:e9:a7:80:28:d5:
        73:23:a3:6b:59:1a:4f:23:a4:48:36:f8:e0:d3:d1:3a:c6:49:
        d6:56:48:e8:95:29:3f:b1:6f:ba:17:b5:14:eb:3e:57:82:ed:
        b2:d2:df:a3:12:f6:8e:50:e1:75:83:7b:c3:4c:66:3b:09:f4:
        2c:19:b4:06:9c:c3:a8:cf:ea:d8:f0:11:3d:43:09:a3:f6:9c:
        55:11:c0:22:2e:39:1b:d4:32:f7:60:1f:16:c0:7f:d7:a4:96:
        92:cc:77:1e:e9:88:d8:b3:de:8f:7e:d3:c6:ad:29:e6:94:8b:
        07:34:c1:f5:45:38:dc:5b:e9:b3:62:46:77:16:0e:45:d0:fd:
        c4:22:af:5c
-----BEGIN CERTIFICATE-----
MIIDfzCCAmcCAWYwDQYJKoZIhvcNAQEFBQAwgZwxHzAdBgNVBAoTFkNvbXB1dGVy
IFNjaWVuY2UgSG91c2UxDzANBgNVBAsTBk9QQ29tbTEjMCEGCSqGSIb3DQEJARYU
c3lzYWRtaW5AY3NoLnJpdC5lZHUxEjAQBgNVBAcTCVJvY2hlc3RlcjERMA8GA1UE
CBMITmV3IFlvcmsxCzAJBgNVBAYTAlVTMQ8wDQYDVQQDEwZPUENvbW0wHhcNMDgx
MTIxMTEzNjM2WhcNMDkxMTIxMTEzNjM2WjBuMQswCQYDVQQGEwJVUzERMA8GA1UE
CBMITmV3IFlvcmsxHzAdBgNVBAoTFkNvbXB1dGVyIFNjaWVuY2UgSG91c2UxDzAN
BgNVBAsTBk9QQ29tbTEaMBgGA1UEAxMRZHJpbmsuY3NoLnJpdC5lZHUwggEiMA0G
CSqGSIb3DQEBAQUAA4IBDwAwggEKAoIBAQCs09hb2R/RVwr9fIRtlJ7thiVwGoZa
hhGu1lD77vdv/O7NzxXZQiDPbBlXPkTY6pF0G9WVUeERgY4WswZKkj+sezxTOKOB
t/O1kxbzMBCMX63VdXPw/WG9WbkMehlPGeK3maetL4pAfNPVkwapSwkEDs07jsRC
kks27bJELR3U1B0++OQnG+00mR30KLzFTA340Au67bhX2+ceFe8vTpF8k0sIKt8e
75skcVjtNl9BbG5QnUVwnz3NZc6AC/uRs0fiSHZYNkGDQe1NEav4m0C1WFb6u2MF
nepdh2bq6DLHlLnUrg5xFrS+EHgoGxqnJiRsCHHYuEi832HghH/wBENfAgMBAAEw
DQYJKoZIhvcNAQEFBQADggEBAEUosMhQ2WG+l2BaU3VGztHFYq7RHsfN4AIvCg8C
xZFfyIuz1je1Gn+pLBOLQih7mymp80RE9mHNv7QunNF8NrkqsWCsoX0YTRPmqq0R
NFHntGJmDLjLNeUKUBRsadfHXMWwCFDeuI+aFGFD3NZkMt26EZlTz09xx4rpp4Ao
1XMjo2tZGk8jpEg2+ODT0TrGSdZWSOiVKT+xb7oXtRTrPleC7bLS36MS9o5Q4XWD
e8NMZjsJ9CwZtAacw6jP6tjwET1DCaP2nFURwCIuORvUMvdgHxbAf9eklpLMdx7p
iNiz3o9+08atKeaUiwc0wfVFONxb6bNiRncWDkXQ/cQir1w=
-----END CERTIFICATE-----
